target datalayout = "e-m:e-p270:32:32-p271:32:32-p272:64:64-i64:64-i128:128-f80:128-n8:16:32:64-S128"
target triple = "x86_64-pc-linux-gnu"

@.str.9 = private unnamed_addr constant [29 x i8] c"could not open file \22%s\22: %m\00", align 1
@.str.10 = private unnamed_addr constant [30 x i8] c"could not fsync file \22%s\22: %m\00", align 1

; Function Attrs: nounwind uwtable
define i32 @fsync_fname(ptr noundef %0, i1 noundef zeroext %1) #0 {
  %3 = alloca i32, align 4
  %4 = alloca ptr, align 8
  %5 = alloca i8, align 1
  %6 = alloca i32, align 4
  %7 = alloca i32, align 4
  %8 = alloca i32, align 4
  %9 = alloca i32, align 4
  store ptr %0, ptr %4, align 8
  %10 = zext i1 %1 to i8
  store i8 %10, ptr %5, align 1
  call void @llvm.lifetime.start.p0(i64 4, ptr %6) #9
  call void @llvm.lifetime.start.p0(i64 4, ptr %7) #9
  call void @llvm.lifetime.start.p0(i64 4, ptr %8) #9
  store i32 0, ptr %7, align 4
  %11 = load i8, ptr %5, align 1, !range !5, !noundef !6
  %12 = trunc i8 %11 to i1
  br i1 %12, label %16, label %13

13:                                               ; preds = %2
  %14 = load i32, ptr %7, align 4
  %15 = or i32 %14, 2
  store i32 %15, ptr %7, align 4
  br label %19

16:                                               ; preds = %2
  %17 = load i32, ptr %7, align 4
  %18 = or i32 %17, 0
  store i32 %18, ptr %7, align 4
  br label %19

19:                                               ; preds = %16, %13
  %20 = load ptr, ptr %4, align 8
  %21 = load i32, ptr %7, align 4
  %22 = call i32 (ptr, i32, ...) @open(ptr noundef %20, i32 noundef %21, i32 noundef 0)
  store i32 %22, ptr %6, align 4
  %23 = load i32, ptr %6, align 4
  %24 = icmp slt i32 %23, 0
  br i1 %24, label %25, label %39

25:                                               ; preds = %19
  %26 = call ptr @__errno_location() #10
  %27 = load i32, ptr %26, align 4
  %28 = icmp eq i32 %27, 13
  br i1 %28, label %36, label %29

29:                                               ; preds = %25
  %30 = load i8, ptr %5, align 1, !range !5, !noundef !6
  %31 = trunc i8 %30 to i1
  br i1 %31, label %32, label %37

32:                                               ; preds = %29
  %33 = call ptr @__errno_location() #10
  %34 = load i32, ptr %33, align 4
  %35 = icmp eq i32 %34, 21
  br i1 %35, label %36, label %37

36:                                               ; preds = %32, %25
  store i32 0, ptr %3, align 4
  store i32 1, ptr %9, align 4
  br label %62

37:                                               ; preds = %32, %29
  %38 = load ptr, ptr %4, align 8
  call void (i32, i32, ptr, ...) @pg_log_generic(i32 noundef 4, i32 noundef 0, ptr noundef @.str.9, ptr noundef %38)
  store i32 -1, ptr %3, align 4
  store i32 1, ptr %9, align 4
  br label %62

39:                                               ; preds = %19
  %40 = load i32, ptr %6, align 4
  %41 = call i32 @fsync(i32 noundef %40)
  store i32 %41, ptr %8, align 4
  %42 = load i32, ptr %8, align 4
  %43 = icmp ne i32 %42, 0
  br i1 %43, label %44, label %59

44:                                               ; preds = %39
  %45 = load i8, ptr %5, align 1, !range !5, !noundef !6
  %46 = trunc i8 %45 to i1
  br i1 %46, label %47, label %55

47:                                               ; preds = %44
  %48 = call ptr @__errno_location() #10
  %49 = load i32, ptr %48, align 4
  %50 = icmp eq i32 %49, 9
  br i1 %50, label %59, label %51

51:                                               ; preds = %47
  %52 = call ptr @__errno_location() #10
  %53 = load i32, ptr %52, align 4
  %54 = icmp eq i32 %53, 22
  br i1 %54, label %59, label %55

55:                                               ; preds = %51, %44
  %56 = load ptr, ptr %4, align 8
  call void (i32, i32, ptr, ...) @pg_log_generic(i32 noundef 4, i32 noundef 0, ptr noundef @.str.10, ptr noundef %56)
  %57 = load i32, ptr %6, align 4
  %58 = call i32 @close(i32 noundef %57)
  call void @exit(i32 noundef 1) #12
  unreachable

59:                                               ; preds = %51, %47, %39
  %60 = load i32, ptr %6, align 4
  %61 = call i32 @close(i32 noundef %60)
  store i32 0, ptr %3, align 4
  store i32 1, ptr %9, align 4
  br label %62

62:                                               ; preds = %59, %37, %36
  call void @llvm.lifetime.end.p0(i64 4, ptr %8) #9
  call void @llvm.lifetime.end.p0(i64 4, ptr %7) #9
  call void @llvm.lifetime.end.p0(i64 4, ptr %6) #9
  %63 = load i32, ptr %3, align 4
  ret i32 %63
}