; Function Attrs: nounwind uwtable
define range(i32 -1, 1) i32 @fsync_fname(ptr noundef %0, i1 noundef zeroext %1) #0 {
  %. = select i1 %1, i32 0, i32 2
  %3 = tail call i32 (ptr, i32, ...) @open(ptr noundef %0, i32 noundef %., i32 noundef 0) #11
  %4 = icmp slt i32 %3, 0
  br i1 %4, label %5, label %11

5:                                                ; preds = %2
  %6 = tail call ptr @__errno_location() #12
  %7 = load i32, ptr %6, align 4
  %8 = icmp eq i32 %7, 13
  %9 = icmp eq i32 %7, 21
  %or.cond = and i1 %1, %9
  %or.cond18 = or i1 %8, %or.cond
  br i1 %or.cond18, label %21, label %10

10:                                               ; preds = %5
  tail call void (i32, i32, ptr, ...) @pg_log_generic(i32 noundef 4, i32 noundef 0, ptr noundef nonnull @.str.9, ptr noundef %0) #11
  br label %21

11:                                               ; preds = %2
  %12 = tail call i32 @fsync(i32 noundef %3) #11
  %.not = icmp eq i32 %12, 0
  br i1 %.not, label %19, label %13

13:                                               ; preds = %11
  br i1 %1, label %14, label %17

14:                                               ; preds = %13
  %15 = tail call ptr @__errno_location() #12
  %16 = load i32, ptr %15, align 4
  switch i32 %16, label %17 [
    i32 9, label %19
    i32 22, label %19
  ]

17:                                               ; preds = %14, %13
  tail call void (i32, i32, ptr, ...) @pg_log_generic(i32 noundef 4, i32 noundef 0, ptr noundef nonnull @.str.10, ptr noundef %0) #11
  %18 = tail call i32 @close(i32 noundef %3) #11
  tail call void @exit(i32 noundef 1) #13
  unreachable

19:                                               ; preds = %14, %14, %11
  %20 = tail call i32 @close(i32 noundef %3) #11
  br label %21

21:                                               ; preds = %5, %19, %10
  %.0 = phi i32 [ -1, %10 ], [ 0, %19 ], [ 0, %5 ]
  ret i32 %.0
}